; Function Attrs: nofree nounwind uwtable
define dso_local void @geod_directline(ptr noundef %0, ptr noundef readonly captures(none) %1, double noundef %2, double noundef %3, double noundef %4, double noundef %5, i32 noundef %6) local_unnamed_addr #3 {
  tail call void @geod_lineinit(ptr noundef %0, ptr noundef readonly %1, double noundef %2, double noundef %3, double noundef %4, i32 noundef %6)
  %8 = getelementptr inbounds nuw i8, ptr %0, i64 64
  store double %5, ptr %8, align 8, !tbaa !48
  %9 = tail call double @geod_genposition(ptr noundef %0, i32 noundef 0, double noundef %5, ptr noundef null, ptr noundef null, ptr noundef null, ptr noundef null, ptr noundef null, ptr noundef null, ptr noundef null, ptr noundef null)
  %10 = getelementptr inbounds nuw i8, ptr %0, i64 56
  store double %9, ptr %10, align 8, !tbaa !49
  ret void
}